target datalayout = "e-m:e-p270:32:32-p271:32:32-p272:64:64-i64:64-i128:128-f80:128-n8:16:32:64-S128"
target triple = "x86_64-unknown-linux-gnu"

%class.btCompoundShape = type { %class.btCollisionShape, %class.btAlignedObjectArray, %class.btVector3, %class.btVector3, ptr, i32, float, %class.btVector3 }
%class.btCollisionShape = type { ptr, i32, ptr, i32, i32 }
%class.btAlignedObjectArray = type <{ %class.btAlignedAllocator, [3 x i8], i32, i32, [4 x i8], ptr, i8, [7 x i8] }>
%class.btAlignedAllocator = type { i8 }
%class.btVector3 = type { [4 x float] }
%struct.btCompoundShapeChild = type { %class.btTransform, ptr, i32, float, ptr }
%class.btTransform = type { %class.btMatrix3x3, %class.btVector3 }
%class.btMatrix3x3 = type { [3 x %class.btVector3] }
%struct.btDbvtAabbMm = type { %class.btVector3, %class.btVector3 }

; Function Attrs: mustprogress uwtable
define linkonce_odr dso_local void @_ZN11btMatrix3x3C2Ev(ptr noundef nonnull align 4 dereferenceable(48) %this) unnamed_addr #2 comdat align 2 {
entry:
  %this.addr = alloca ptr, align 8
  store ptr %this, ptr %this.addr, align 8
  %this1 = load ptr, ptr %this.addr, align 8
  %m_el = getelementptr inbounds %class.btMatrix3x3, ptr %this1, i32 0, i32 0
  %array.begin = getelementptr inbounds [3 x %class.btVector3], ptr %m_el, i32 0, i32 0
  %arrayctor.end = getelementptr inbounds %class.btVector3, ptr %array.begin, i64 3
  br label %arrayctor.loop

arrayctor.loop:                                   ; preds = %arrayctor.loop, %entry
  %arrayctor.cur = phi ptr [ %array.begin, %entry ], [ %arrayctor.next, %arrayctor.loop ]
  call void @_ZN9btVector3C2Ev(ptr noundef nonnull align 4 dereferenceable(16) %arrayctor.cur)
  %arrayctor.next = getelementptr inbounds %class.btVector3, ptr %arrayctor.cur, i64 1
  %arrayctor.done = icmp eq ptr %arrayctor.next, %arrayctor.end
  br i1 %arrayctor.done, label %arrayctor.cont, label %arrayctor.loop

arrayctor.cont:                                   ; preds = %arrayctor.loop
  ret void
}

; Function Attrs: mustprogress uwtable
define linkonce_odr dso_local void @_ZN12btDbvtAabbMmC2Ev(ptr noundef nonnull align 4 dereferenceable(32) %this) unnamed_addr #2 comdat align 2 {
entry:
  %this.addr = alloca ptr, align 8
  store ptr %this, ptr %this.addr, align 8
  %this1 = load ptr, ptr %this.addr, align 8
  %mi = getelementptr inbounds %struct.btDbvtAabbMm, ptr %this1, i32 0, i32 0
  call void @_ZN9btVector3C2Ev(ptr noundef nonnull align 4 dereferenceable(16) %mi)
  %mx = getelementptr inbounds %struct.btDbvtAabbMm, ptr %this1, i32 0, i32 1
  call void @_ZN9btVector3C2Ev(ptr noundef nonnull align 4 dereferenceable(16) %mx)
  ret void
}

; Function Attrs: mustprogress nounwind uwtable
define linkonce_odr dso_local noundef nonnull align 4 dereferenceable(48) ptr @_ZN11btMatrix3x3aSERKS_(ptr noundef nonnull align 4 dereferenceable(48) %this, ptr noundef nonnull align 4 dereferenceable(48) %other) #1 comdat align 2 {
entry:
  %this.addr = alloca ptr, align 8
  %other.addr = alloca ptr, align 8
  store ptr %this, ptr %this.addr, align 8
  store ptr %other, ptr %other.addr, align 8
  %this1 = load ptr, ptr %this.addr, align 8
  %0 = load ptr, ptr %other.addr, align 8
  %m_el = getelementptr inbounds %class.btMatrix3x3, ptr %0, i32 0, i32 0
  %arrayidx = getelementptr inbounds [3 x %class.btVector3], ptr %m_el, i64 0, i64 0
  %m_el2 = getelementptr inbounds %class.btMatrix3x3, ptr %this1, i32 0, i32 0
  %arrayidx3 = getelementptr inbounds [3 x %class.btVector3], ptr %m_el2, i64 0, i64 0
  call void @llvm.memcpy.p0.p0.i64(ptr align 4 %arrayidx3, ptr align 4 %arrayidx, i64 16, i1 false)
  %1 = load ptr, ptr %other.addr, align 8
  %m_el4 = getelementptr inbounds %class.btMatrix3x3, ptr %1, i32 0, i32 0
  %arrayidx5 = getelementptr inbounds [3 x %class.btVector3], ptr %m_el4, i64 0, i64 1
  %m_el6 = getelementptr inbounds %class.btMatrix3x3, ptr %this1, i32 0, i32 0
  %arrayidx7 = getelementptr inbounds [3 x %class.btVector3], ptr %m_el6, i64 0, i64 1
  call void @llvm.memcpy.p0.p0.i64(ptr align 4 %arrayidx7, ptr align 4 %arrayidx5, i64 16, i1 false)
  %2 = load ptr, ptr %other.addr, align 8
  %m_el8 = getelementptr inbounds %class.btMatrix3x3, ptr %2, i32 0, i32 0
  %arrayidx9 = getelementptr inbounds [3 x %class.btVector3], ptr %m_el8, i64 0, i64 2
  %m_el10 = getelementptr inbounds %class.btMatrix3x3, ptr %this1, i32 0, i32 0
  %arrayidx11 = getelementptr inbounds [3 x %class.btVector3], ptr %m_el10, i64 0, i64 2
  call void @llvm.memcpy.p0.p0.i64(ptr align 4 %arrayidx11, ptr align 4 %arrayidx9, i64 16, i1 false)
  ret ptr %this1
}

; Function Attrs: mustprogress uwtable
define linkonce_odr dso_local void @_ZN11btTransformC2Ev(ptr noundef nonnull align 4 dereferenceable(64) %this) unnamed_addr #2 comdat align 2 {
entry:
  %this.addr = alloca ptr, align 8
  store ptr %this, ptr %this.addr, align 8
  %this1 = load ptr, ptr %this.addr, align 8
  %m_basis = getelementptr inbounds %class.btTransform, ptr %this1, i32 0, i32 0
  call void @_ZN11btMatrix3x3C2Ev(ptr noundef nonnull align 4 dereferenceable(48) %m_basis)
  %m_origin = getelementptr inbounds %class.btTransform, ptr %this1, i32 0, i32 1
  call void @_ZN9btVector3C2Ev(ptr noundef nonnull align 4 dereferenceable(16) %m_origin)
  ret void
}

; Function Attrs: mustprogress nounwind uwtable
define linkonce_odr dso_local noundef i32 @_ZNK20btAlignedObjectArrayI20btCompoundShapeChildE4sizeEv(ptr noundef nonnull align 8 dereferenceable(25) %this) #1 comdat align 2 {
entry:
  %this.addr = alloca ptr, align 8
  store ptr %this, ptr %this.addr, align 8
  %this1 = load ptr, ptr %this.addr, align 8
  %m_size = getelementptr inbounds %class.btAlignedObjectArray, ptr %this1, i32 0, i32 2
  %0 = load i32, ptr %m_size, align 4
  ret i32 %0
}

; Function Attrs: mustprogress uwtable
define linkonce_odr dso_local void @_ZN12btDbvtAabbMm6FromMMERK9btVector3S2_(ptr noalias sret(%struct.btDbvtAabbMm) align 4 %agg.result, ptr noundef nonnull align 4 dereferenceable(16) %mi, ptr noundef nonnull align 4 dereferenceable(16) %mx) #2 comdat align 2 {
entry:
  %mi.addr = alloca ptr, align 8
  %mx.addr = alloca ptr, align 8
  store ptr %mi, ptr %mi.addr, align 8
  store ptr %mx, ptr %mx.addr, align 8
  call void @_ZN12btDbvtAabbMmC2Ev(ptr noundef nonnull align 4 dereferenceable(32) %agg.result)
  %0 = load ptr, ptr %mi.addr, align 8
  %mi1 = getelementptr inbounds %struct.btDbvtAabbMm, ptr %agg.result, i32 0, i32 0
  call void @llvm.memcpy.p0.p0.i64(ptr align 4 %mi1, ptr align 4 %0, i64 16, i1 false)
  %1 = load ptr, ptr %mx.addr, align 8
  %mx2 = getelementptr inbounds %struct.btDbvtAabbMm, ptr %agg.result, i32 0, i32 1
  call void @llvm.memcpy.p0.p0.i64(ptr align 4 %mx2, ptr align 4 %1, i64 16, i1 false)
  ret void
}

; Function Attrs: mustprogress nounwind uwtable
define linkonce_odr dso_local noundef ptr @_ZN9btVector3cvPfEv(ptr noundef nonnull align 4 dereferenceable(16) %this) #1 comdat align 2 {
entry:
  %this.addr = alloca ptr, align 8
  store ptr %this, ptr %this.addr, align 8
  %this1 = load ptr, ptr %this.addr, align 8
  %m_floats = getelementptr inbounds %class.btVector3, ptr %this1, i32 0, i32 0
  %arrayidx = getelementptr inbounds [4 x float], ptr %m_floats, i64 0, i64 0
  ret ptr %arrayidx
}

; Function Attrs: mustprogress nounwind uwtable
define linkonce_odr dso_local void @_ZN9btVector3C2Ev(ptr noundef nonnull align 4 dereferenceable(16) %this) unnamed_addr #1 comdat align 2 {
entry:
  %this.addr = alloca ptr, align 8
  store ptr %this, ptr %this.addr, align 8
  ret void
}

; Function Attrs: mustprogress nounwind uwtable
define linkonce_odr dso_local noundef i32 @_ZNK16btCollisionShape12getShapeTypeEv(ptr noundef nonnull align 8 dereferenceable(32) %this) #1 comdat align 2 {
entry:
  %this.addr = alloca ptr, align 8
  store ptr %this, ptr %this.addr, align 8
  %this1 = load ptr, ptr %this.addr, align 8
  %m_shapeType = getelementptr inbounds %class.btCollisionShape, ptr %this1, i32 0, i32 1
  %0 = load i32, ptr %m_shapeType, align 8
  ret i32 %0
}

; Function Attrs: mustprogress uwtable
define linkonce_odr dso_local noundef nonnull align 4 dereferenceable(64) ptr @_ZN11btTransformaSERKS_(ptr noundef nonnull align 4 dereferenceable(64) %this, ptr noundef nonnull align 4 dereferenceable(64) %other) #2 comdat align 2 {
entry:
  %this.addr = alloca ptr, align 8
  %other.addr = alloca ptr, align 8
  store ptr %this, ptr %this.addr, align 8
  store ptr %other, ptr %other.addr, align 8
  %this1 = load ptr, ptr %this.addr, align 8
  %0 = load ptr, ptr %other.addr, align 8
  %m_basis = getelementptr inbounds %class.btTransform, ptr %0, i32 0, i32 0
  %m_basis2 = getelementptr inbounds %class.btTransform, ptr %this1, i32 0, i32 0
  %call = call noundef nonnull align 4 dereferenceable(48) ptr @_ZN11btMatrix3x3aSERKS_(ptr noundef nonnull align 4 dereferenceable(48) %m_basis2, ptr noundef nonnull align 4 dereferenceable(48) %m_basis)
  %1 = load ptr, ptr %other.addr, align 8
  %m_origin = getelementptr inbounds %class.btTransform, ptr %1, i32 0, i32 1
  %m_origin3 = getelementptr inbounds %class.btTransform, ptr %this1, i32 0, i32 1
  call void @llvm.memcpy.p0.p0.i64(ptr align 4 %m_origin3, ptr align 4 %m_origin, i64 16, i1 false)
  ret ptr %this1
}

; Function Attrs: mustprogress uwtable
define linkonce_odr dso_local void @_ZN20btCompoundShapeChildC2Ev(ptr noundef nonnull align 8 dereferenceable(88) %this) unnamed_addr #2 comdat align 2 {
entry:
  %this.addr = alloca ptr, align 8
  store ptr %this, ptr %this.addr, align 8
  %this1 = load ptr, ptr %this.addr, align 8
  %m_transform = getelementptr inbounds %struct.btCompoundShapeChild, ptr %this1, i32 0, i32 0
  call void @_ZN11btTransformC2Ev(ptr noundef nonnull align 4 dereferenceable(64) %m_transform)
  ret void
}

; Function Attrs: mustprogress uwtable
define dso_local void @_ZN15btCompoundShape13addChildShapeERK11btTransformP16btCollisionShape(ptr noundef nonnull align 8 dereferenceable(128) %this, ptr noundef nonnull align 4 dereferenceable(64) %localTransform, ptr noundef %shape) #2 align 2 {
entry:
  %this.addr = alloca ptr, align 8
  %localTransform.addr = alloca ptr, align 8
  %shape.addr = alloca ptr, align 8
  %child = alloca %struct.btCompoundShapeChild, align 8
  %localAabbMin = alloca %class.btVector3, align 4
  %localAabbMax = alloca %class.btVector3, align 4
  %i = alloca i32, align 4
  %bounds = alloca %struct.btDbvtAabbMm, align 4
  %index = alloca i64, align 8
  store ptr %this, ptr %this.addr, align 8
  store ptr %localTransform, ptr %localTransform.addr, align 8
  store ptr %shape, ptr %shape.addr, align 8
  %this1 = load ptr, ptr %this.addr, align 8
  %m_updateRevision = getelementptr inbounds %class.btCompoundShape, ptr %this1, i32 0, i32 5
  %0 = load i32, ptr %m_updateRevision, align 8
  %inc = add nsw i32 %0, 1
  store i32 %inc, ptr %m_updateRevision, align 8
  call void @_ZN20btCompoundShapeChildC2Ev(ptr noundef nonnull align 8 dereferenceable(88) %child)
  %m_node = getelementptr inbounds %struct.btCompoundShapeChild, ptr %child, i32 0, i32 4
  store ptr null, ptr %m_node, align 8
  %1 = load ptr, ptr %localTransform.addr, align 8
  %m_transform = getelementptr inbounds %struct.btCompoundShapeChild, ptr %child, i32 0, i32 0
  %call = call noundef nonnull align 4 dereferenceable(64) ptr @_ZN11btTransformaSERKS_(ptr noundef nonnull align 4 dereferenceable(64) %m_transform, ptr noundef nonnull align 4 dereferenceable(64) %1)
  %2 = load ptr, ptr %shape.addr, align 8
  %m_childShape = getelementptr inbounds %struct.btCompoundShapeChild, ptr %child, i32 0, i32 1
  store ptr %2, ptr %m_childShape, align 8
  %3 = load ptr, ptr %shape.addr, align 8
  %call2 = call noundef i32 @_ZNK16btCollisionShape12getShapeTypeEv(ptr noundef nonnull align 8 dereferenceable(32) %3)
  %m_childShapeType = getelementptr inbounds %struct.btCompoundShapeChild, ptr %child, i32 0, i32 2
  store i32 %call2, ptr %m_childShapeType, align 8
  %4 = load ptr, ptr %shape.addr, align 8
  %vtable = load ptr, ptr %4, align 8
  %vfn = getelementptr inbounds ptr, ptr %vtable, i64 12
  %5 = load ptr, ptr %vfn, align 8
  %call3 = call noundef float %5(ptr noundef nonnull align 8 dereferenceable(32) %4)
  %m_childMargin = getelementptr inbounds %struct.btCompoundShapeChild, ptr %child, i32 0, i32 3
  store float %call3, ptr %m_childMargin, align 4
  call void @_ZN9btVector3C2Ev(ptr noundef nonnull align 4 dereferenceable(16) %localAabbMin)
  call void @_ZN9btVector3C2Ev(ptr noundef nonnull align 4 dereferenceable(16) %localAabbMax)
  %6 = load ptr, ptr %shape.addr, align 8
  %7 = load ptr, ptr %localTransform.addr, align 8
  %vtable4 = load ptr, ptr %6, align 8
  %vfn5 = getelementptr inbounds ptr, ptr %vtable4, i64 2
  %8 = load ptr, ptr %vfn5, align 8
  call void %8(ptr noundef nonnull align 8 dereferenceable(32) %6, ptr noundef nonnull align 4 dereferenceable(64) %7, ptr noundef nonnull align 4 dereferenceable(16) %localAabbMin, ptr noundef nonnull align 4 dereferenceable(16) %localAabbMax)
  store i32 0, ptr %i, align 4
  br label %for.cond

for.cond:                                         ; preds = %for.inc, %entry
  %9 = load i32, ptr %i, align 4
  %cmp = icmp slt i32 %9, 3
  br i1 %cmp, label %for.body, label %for.end

for.body:                                         ; preds = %for.cond
  %m_localAabbMin = getelementptr inbounds %class.btCompoundShape, ptr %this1, i32 0, i32 2
  %call6 = call noundef ptr @_ZN9btVector3cvPfEv(ptr noundef nonnull align 4 dereferenceable(16) %m_localAabbMin)
  %10 = load i32, ptr %i, align 4
  %idxprom = sext i32 %10 to i64
  %arrayidx = getelementptr inbounds float, ptr %call6, i64 %idxprom
  %11 = load float, ptr %arrayidx, align 4
  %call7 = call noundef ptr @_ZN9btVector3cvPfEv(ptr noundef nonnull align 4 dereferenceable(16) %localAabbMin)
  %12 = load i32, ptr %i, align 4
  %idxprom8 = sext i32 %12 to i64
  %arrayidx9 = getelementptr inbounds float, ptr %call7, i64 %idxprom8
  %13 = load float, ptr %arrayidx9, align 4
  %cmp10 = fcmp ogt float %11, %13
  br i1 %cmp10, label %if.then, label %if.end

if.then:                                          ; preds = %for.body
  %call11 = call noundef ptr @_ZN9btVector3cvPfEv(ptr noundef nonnull align 4 dereferenceable(16) %localAabbMin)
  %14 = load i32, ptr %i, align 4
  %idxprom12 = sext i32 %14 to i64
  %arrayidx13 = getelementptr inbounds float, ptr %call11, i64 %idxprom12
  %15 = load float, ptr %arrayidx13, align 4
  %m_localAabbMin14 = getelementptr inbounds %class.btCompoundShape, ptr %this1, i32 0, i32 2
  %call15 = call noundef ptr @_ZN9btVector3cvPfEv(ptr noundef nonnull align 4 dereferenceable(16) %m_localAabbMin14)
  %16 = load i32, ptr %i, align 4
  %idxprom16 = sext i32 %16 to i64
  %arrayidx17 = getelementptr inbounds float, ptr %call15, i64 %idxprom16
  store float %15, ptr %arrayidx17, align 4
  br label %if.end

if.end:                                           ; preds = %if.then, %for.body
  %m_localAabbMax = getelementptr inbounds %class.btCompoundShape, ptr %this1, i32 0, i32 3
  %call18 = call noundef ptr @_ZN9btVector3cvPfEv(ptr noundef nonnull align 4 dereferenceable(16) %m_localAabbMax)
  %17 = load i32, ptr %i, align 4
  %idxprom19 = sext i32 %17 to i64
  %arrayidx20 = getelementptr inbounds float, ptr %call18, i64 %idxprom19
  %18 = load float, ptr %arrayidx20, align 4
  %call21 = call noundef ptr @_ZN9btVector3cvPfEv(ptr noundef nonnull align 4 dereferenceable(16) %localAabbMax)
  %19 = load i32, ptr %i, align 4
  %idxprom22 = sext i32 %19 to i64
  %arrayidx23 = getelementptr inbounds float, ptr %call21, i64 %idxprom22
  %20 = load float, ptr %arrayidx23, align 4
  %cmp24 = fcmp olt float %18, %20
  br i1 %cmp24, label %if.then25, label %if.end33

if.then25:                                        ; preds = %if.end
  %call26 = call noundef ptr @_ZN9btVector3cvPfEv(ptr noundef nonnull align 4 dereferenceable(16) %localAabbMax)
  %21 = load i32, ptr %i, align 4
  %idxprom27 = sext i32 %21 to i64
  %arrayidx28 = getelementptr inbounds float, ptr %call26, i64 %idxprom27
  %22 = load float, ptr %arrayidx28, align 4
  %m_localAabbMax29 = getelementptr inbounds %class.btCompoundShape, ptr %this1, i32 0, i32 3
  %call30 = call noundef ptr @_ZN9btVector3cvPfEv(ptr noundef nonnull align 4 dereferenceable(16) %m_localAabbMax29)
  %23 = load i32, ptr %i, align 4
  %idxprom31 = sext i32 %23 to i64
  %arrayidx32 = getelementptr inbounds float, ptr %call30, i64 %idxprom31
  store float %22, ptr %arrayidx32, align 4
  br label %if.end33

if.end33:                                         ; preds = %if.then25, %if.end
  br label %for.inc

for.inc:                                          ; preds = %if.end33
  %24 = load i32, ptr %i, align 4
  %inc34 = add nsw i32 %24, 1
  store i32 %inc34, ptr %i, align 4
  br label %for.cond, !llvm.loop !5

for.end:                                          ; preds = %for.cond
  %m_dynamicAabbTree = getelementptr inbounds %class.btCompoundShape, ptr %this1, i32 0, i32 4
  %25 = load ptr, ptr %m_dynamicAabbTree, align 8
  %tobool = icmp ne ptr %25, null
  br i1 %tobool, label %if.then35, label %if.end40

if.then35:                                        ; preds = %for.end
  call void @_ZN12btDbvtAabbMm6FromMMERK9btVector3S2_(ptr sret(%struct.btDbvtAabbMm) align 4 %bounds, ptr noundef nonnull align 4 dereferenceable(16) %localAabbMin, ptr noundef nonnull align 4 dereferenceable(16) %localAabbMax)
  %m_children = getelementptr inbounds %class.btCompoundShape, ptr %this1, i32 0, i32 1
  %call36 = call noundef i32 @_ZNK20btAlignedObjectArrayI20btCompoundShapeChildE4sizeEv(ptr noundef nonnull align 8 dereferenceable(25) %m_children)
  %conv = sext i32 %call36 to i64
  store i64 %conv, ptr %index, align 8
  %m_dynamicAabbTree37 = getelementptr inbounds %class.btCompoundShape, ptr %this1, i32 0, i32 4
  %26 = load ptr, ptr %m_dynamicAabbTree37, align 8
  %27 = load i64, ptr %index, align 8
  %28 = inttoptr i64 %27 to ptr
  %call38 = call noundef ptr @_ZN6btDbvt6insertERK12btDbvtAabbMmPv(ptr noundef nonnull align 8 dereferenceable(64) %26, ptr noundef nonnull align 4 dereferenceable(32) %bounds, ptr noundef %28)
  %m_node39 = getelementptr inbounds %struct.btCompoundShapeChild, ptr %child, i32 0, i32 4
  store ptr %call38, ptr %m_node39, align 8
  br label %if.end40

if.end40:                                         ; preds = %if.then35, %for.end
  %m_children41 = getelementptr inbounds %class.btCompoundShape, ptr %this1, i32 0, i32 1
  call void @_ZN20btAlignedObjectArrayI20btCompoundShapeChildE9push_backERKS0_(ptr noundef nonnull align 8 dereferenceable(25) %m_children41, ptr noundef nonnull align 8 dereferenceable(88) %child)
  ret void
}