; Function Attrs: mustprogress uwtable
define dso_local void @_ZN15btCompoundShape13addChildShapeERK11btTransformP16btCollisionShape(ptr noundef nonnull align 8 dereferenceable(128) %this, ptr noundef nonnull align 4 dereferenceable(64) %localTransform, ptr noundef %shape) local_unnamed_addr #0 align 2 {
entry:
  %child = alloca %struct.btCompoundShapeChild, align 8
  %localAabbMin = alloca %class.btVector3, align 4
  %localAabbMax = alloca %class.btVector3, align 4
  %bounds = alloca %struct.btDbvtAabbMm, align 4
  %m_updateRevision = getelementptr inbounds i8, ptr %this, i64 104
  %0 = load i32, ptr %m_updateRevision, align 8
  %inc = add nsw i32 %0, 1
  store i32 %inc, ptr %m_updateRevision, align 8
  %m_node = getelementptr inbounds i8, ptr %child, i64 80
  store ptr null, ptr %m_node, align 8
  call void @llvm.memcpy.p0.p0.i64(ptr noundef nonnull align 8 dereferenceable(16) %child, ptr noundef nonnull align 4 dereferenceable(16) %localTransform, i64 16, i1 false)
  %arrayidx5.i.i = getelementptr inbounds i8, ptr %localTransform, i64 16
  %arrayidx7.i.i = getelementptr inbounds i8, ptr %child, i64 16
  call void @llvm.memcpy.p0.p0.i64(ptr noundef nonnull align 8 dereferenceable(16) %arrayidx7.i.i, ptr noundef nonnull align 4 dereferenceable(16) %arrayidx5.i.i, i64 16, i1 false)
  %arrayidx9.i.i = getelementptr inbounds i8, ptr %localTransform, i64 32
  %arrayidx11.i.i = getelementptr inbounds i8, ptr %child, i64 32
  call void @llvm.memcpy.p0.p0.i64(ptr noundef nonnull align 8 dereferenceable(16) %arrayidx11.i.i, ptr noundef nonnull align 4 dereferenceable(16) %arrayidx9.i.i, i64 16, i1 false)
  %m_origin.i = getelementptr inbounds i8, ptr %localTransform, i64 48
  %m_origin3.i = getelementptr inbounds i8, ptr %child, i64 48
  call void @llvm.memcpy.p0.p0.i64(ptr noundef nonnull align 8 dereferenceable(16) %m_origin3.i, ptr noundef nonnull align 4 dereferenceable(16) %m_origin.i, i64 16, i1 false)
  %m_childShape = getelementptr inbounds i8, ptr %child, i64 64
  store ptr %shape, ptr %m_childShape, align 8
  %m_shapeType.i = getelementptr inbounds i8, ptr %shape, i64 8
  %1 = load i32, ptr %m_shapeType.i, align 8
  %m_childShapeType = getelementptr inbounds i8, ptr %child, i64 72
  store i32 %1, ptr %m_childShapeType, align 8
  %vtable = load ptr, ptr %shape, align 8
  %vfn = getelementptr inbounds i8, ptr %vtable, i64 96
  %2 = load ptr, ptr %vfn, align 8
  %call3 = tail call noundef float %2(ptr noundef nonnull align 8 dereferenceable(32) %shape)
  %m_childMargin = getelementptr inbounds i8, ptr %child, i64 76
  store float %call3, ptr %m_childMargin, align 4
  %vtable4 = load ptr, ptr %shape, align 8
  %vfn5 = getelementptr inbounds i8, ptr %vtable4, i64 16
  %3 = load ptr, ptr %vfn5, align 8
  call void %3(ptr noundef nonnull align 8 dereferenceable(32) %shape, ptr noundef nonnull align 4 dereferenceable(64) %localTransform, ptr noundef nonnull align 4 dereferenceable(16) %localAabbMin, ptr noundef nonnull align 4 dereferenceable(16) %localAabbMax)
  %m_localAabbMin = getelementptr inbounds i8, ptr %this, i64 64
  %m_localAabbMax = getelementptr inbounds i8, ptr %this, i64 80
  br label %for.body

for.body:                                         ; preds = %entry, %for.inc
  %indvars.iv = phi i64 [ 0, %entry ], [ %indvars.iv.next, %for.inc ]
  %arrayidx = getelementptr inbounds float, ptr %m_localAabbMin, i64 %indvars.iv
  %4 = load float, ptr %arrayidx, align 4
  %arrayidx9 = getelementptr inbounds float, ptr %localAabbMin, i64 %indvars.iv
  %5 = load float, ptr %arrayidx9, align 4
  %cmp10 = fcmp ogt float %4, %5
  br i1 %cmp10, label %if.then, label %if.end

if.then:                                          ; preds = %for.body
  store float %5, ptr %arrayidx, align 4
  br label %if.end

if.end:                                           ; preds = %if.then, %for.body
  %arrayidx20 = getelementptr inbounds float, ptr %m_localAabbMax, i64 %indvars.iv
  %6 = load float, ptr %arrayidx20, align 4
  %arrayidx23 = getelementptr inbounds float, ptr %localAabbMax, i64 %indvars.iv
  %7 = load float, ptr %arrayidx23, align 4
  %cmp24 = fcmp olt float %6, %7
  br i1 %cmp24, label %if.then25, label %for.inc

if.then25:                                        ; preds = %if.end
  store float %7, ptr %arrayidx20, align 4
  br label %for.inc

for.inc:                                          ; preds = %if.end, %if.then25
  %indvars.iv.next = add nuw nsw i64 %indvars.iv, 1
  %exitcond.not = icmp eq i64 %indvars.iv.next, 3
  br i1 %exitcond.not, label %for.end, label %for.body, !llvm.loop !7

for.end:                                          ; preds = %for.inc
  %m_dynamicAabbTree = getelementptr inbounds i8, ptr %this, i64 96
  %8 = load ptr, ptr %m_dynamicAabbTree, align 8
  %tobool.not = icmp eq ptr %8, null
  br i1 %tobool.not, label %if.end40, label %if.then35

if.then35:                                        ; preds = %for.end
  call void @llvm.memcpy.p0.p0.i64(ptr noundef nonnull align 4 dereferenceable(16) %bounds, ptr noundef nonnull align 4 dereferenceable(16) %localAabbMin, i64 16, i1 false)
  %mx2.i = getelementptr inbounds i8, ptr %bounds, i64 16
  call void @llvm.memcpy.p0.p0.i64(ptr noundef nonnull align 4 dereferenceable(16) %mx2.i, ptr noundef nonnull align 4 dereferenceable(16) %localAabbMax, i64 16, i1 false)
  %m_size.i = getelementptr inbounds i8, ptr %this, i64 36
  %9 = load i32, ptr %m_size.i, align 4
  %conv = sext i32 %9 to i64
  %10 = inttoptr i64 %conv to ptr
  %call38 = call noundef ptr @_ZN6btDbvt6insertERK12btDbvtAabbMmPv(ptr noundef nonnull align 8 dereferenceable(64) %8, ptr noundef nonnull align 4 dereferenceable(32) %bounds, ptr noundef %10)
  store ptr %call38, ptr %m_node, align 8
  br label %if.end40

if.end40:                                         ; preds = %if.then35, %for.end
  %m_children41 = getelementptr inbounds i8, ptr %this, i64 32
  call void @_ZN20btAlignedObjectArrayI20btCompoundShapeChildE9push_backERKS0_(ptr noundef nonnull align 8 dereferenceable(25) %m_children41, ptr noundef nonnull align 8 dereferenceable(88) %child)
  ret void
}